target datalayout = "e-m:e-p270:32:32-p271:32:32-p272:64:64-i64:64-i128:128-f80:128-n8:16:32:64-S128"
target triple = "x86_64-pc-linux-gnu"

%struct._proto_node = type { ptr, ptr, ptr, ptr, ptr, ptr, ptr }
%struct.field_info = type { ptr, i32, i32, i32, i32, i32, i32, ptr, ptr, ptr, i32, i32 }

@hf_cql_string_result_rows_table_name = internal global i32 0, align 4
@hf_cql_string_result_rows_keyspace_name = internal global i32 0, align 4
@hf_cql_string_result_rows_column_name = internal global i32 0, align 4
@hf_cql_string_length = internal global i32 0, align 4

; Function Attrs: inlinehint nounwind null_pointer_is_valid sspstrong uwtable
define internal void @proto_item_set_hidden(ptr noundef %0) #5 {
  %2 = alloca ptr, align 8
  store ptr %0, ptr %2, align 8
  %3 = load ptr, ptr %2, align 8
  %4 = icmp ne ptr %3, null
  br i1 %4, label %5, label %24

5:                                                ; preds = %1
  br label %6

6:                                                ; preds = %5
  %7 = load ptr, ptr %2, align 8
  %8 = getelementptr inbounds nuw %struct._proto_node, ptr %7, i32 0, i32 5
  %9 = load ptr, ptr %8, align 8
  %10 = icmp ne ptr %9, null
  br i1 %10, label %11, label %22

11:                                               ; preds = %6
  %12 = load ptr, ptr %2, align 8
  %13 = getelementptr inbounds nuw %struct._proto_node, ptr %12, i32 0, i32 5
  %14 = load ptr, ptr %13, align 8
  %15 = getelementptr inbounds nuw %struct.field_info, ptr %14, i32 0, i32 6
  %16 = load i32, ptr %15, align 4
  %17 = or i32 %16, 1
  %18 = load ptr, ptr %2, align 8
  %19 = getelementptr inbounds nuw %struct._proto_node, ptr %18, i32 0, i32 5
  %20 = load ptr, ptr %19, align 8
  %21 = getelementptr inbounds nuw %struct.field_info, ptr %20, i32 0, i32 6
  store i32 %17, ptr %21, align 4
  br label %22

22:                                               ; preds = %11, %6
  br label %23

23:                                               ; preds = %22
  br label %24

24:                                               ; preds = %23, %1
  ret void
}

; Function Attrs: null_pointer_is_valid sspstrong uwtable
define internal i32 @parse_row(ptr noundef %0, ptr noundef %1, ptr noundef %2, i32 noundef %3, i32 noundef %4, i32 noundef %5) #0 {
  %7 = alloca ptr, align 8
  %8 = alloca ptr, align 8
  %9 = alloca ptr, align 8
  %10 = alloca i32, align 4
  %11 = alloca i32, align 4
  %12 = alloca i32, align 4
  %13 = alloca i32, align 4
  %14 = alloca i32, align 4
  %15 = alloca i32, align 4
  %16 = alloca ptr, align 8
  %17 = alloca i32, align 4
  store ptr %0, ptr %7, align 8
  store ptr %1, ptr %8, align 8
  store ptr %2, ptr %9, align 8
  store i32 %3, ptr %10, align 4
  store i32 %4, ptr %11, align 4
  store i32 %5, ptr %12, align 4
  call void @llvm.lifetime.start.p0(i64 4, ptr %13) #8
  store i32 0, ptr %13, align 4
  call void @llvm.lifetime.start.p0(i64 4, ptr %14) #8
  call void @llvm.lifetime.start.p0(i64 4, ptr %15) #8
  call void @llvm.lifetime.start.p0(i64 8, ptr %16) #8
  call void @llvm.lifetime.start.p0(i64 4, ptr %17) #8
  %18 = load i32, ptr %10, align 4
  store i32 %18, ptr %15, align 4
  store i32 0, ptr %17, align 4
  br label %19

19:                                               ; preds = %88, %6
  %20 = load i32, ptr %17, align 4
  %21 = load i32, ptr %12, align 4
  %22 = icmp slt i32 %20, %21
  br i1 %22, label %23, label %91

23:                                               ; preds = %19
  %24 = load i32, ptr %13, align 4
  %25 = and i32 %24, 1
  %26 = icmp ne i32 %25, 0
  br i1 %26, label %64, label %27

27:                                               ; preds = %23
  %28 = load ptr, ptr %7, align 8
  %29 = load i32, ptr @hf_cql_string_length, align 4
  %30 = load ptr, ptr %9, align 8
  %31 = load i32, ptr %15, align 4
  %32 = call ptr @proto_tree_add_item_ret_uint(ptr noundef %28, i32 noundef %29, ptr noundef %30, i32 noundef %31, i32 noundef 2, i32 noundef 0, ptr noundef %14)
  store ptr %32, ptr %16, align 8
  %33 = load ptr, ptr %16, align 8
  call void @proto_item_set_hidden(ptr noundef %33)
  %34 = load i32, ptr %15, align 4
  %35 = add i32 %34, 2
  store i32 %35, ptr %15, align 4
  %36 = load ptr, ptr %7, align 8
  %37 = load i32, ptr @hf_cql_string_result_rows_keyspace_name, align 4
  %38 = load ptr, ptr %9, align 8
  %39 = load i32, ptr %15, align 4
  %40 = load i32, ptr %14, align 4
  %41 = call ptr @proto_tree_add_item(ptr noundef %36, i32 noundef %37, ptr noundef %38, i32 noundef %39, i32 noundef %40, i32 noundef 2)
  store ptr %41, ptr %16, align 8
  %42 = load ptr, ptr %16, align 8
  call void @proto_item_set_hidden(ptr noundef %42)
  %43 = load i32, ptr %14, align 4
  %44 = load i32, ptr %15, align 4
  %45 = add i32 %44, %43
  store i32 %45, ptr %15, align 4
  %46 = load ptr, ptr %7, align 8
  %47 = load i32, ptr @hf_cql_string_length, align 4
  %48 = load ptr, ptr %9, align 8
  %49 = load i32, ptr %15, align 4
  %50 = call ptr @proto_tree_add_item_ret_uint(ptr noundef %46, i32 noundef %47, ptr noundef %48, i32 noundef %49, i32 noundef 2, i32 noundef 0, ptr noundef %14)
  store ptr %50, ptr %16, align 8
  %51 = load ptr, ptr %16, align 8
  call void @proto_item_set_hidden(ptr noundef %51)
  %52 = load i32, ptr %15, align 4
  %53 = add i32 %52, 2
  store i32 %53, ptr %15, align 4
  %54 = load ptr, ptr %7, align 8
  %55 = load i32, ptr @hf_cql_string_result_rows_table_name, align 4
  %56 = load ptr, ptr %9, align 8
  %57 = load i32, ptr %15, align 4
  %58 = load i32, ptr %14, align 4
  %59 = call ptr @proto_tree_add_item(ptr noundef %54, i32 noundef %55, ptr noundef %56, i32 noundef %57, i32 noundef %58, i32 noundef 2)
  store ptr %59, ptr %16, align 8
  %60 = load ptr, ptr %16, align 8
  call void @proto_item_set_hidden(ptr noundef %60)
  %61 = load i32, ptr %14, align 4
  %62 = load i32, ptr %15, align 4
  %63 = add i32 %62, %61
  store i32 %63, ptr %15, align 4
  br label %64

64:                                               ; preds = %27, %23
  %65 = load ptr, ptr %7, align 8
  %66 = load i32, ptr @hf_cql_string_length, align 4
  %67 = load ptr, ptr %9, align 8
  %68 = load i32, ptr %15, align 4
  %69 = call ptr @proto_tree_add_item_ret_uint(ptr noundef %65, i32 noundef %66, ptr noundef %67, i32 noundef %68, i32 noundef 2, i32 noundef 0, ptr noundef %14)
  store ptr %69, ptr %16, align 8
  %70 = load ptr, ptr %16, align 8
  call void @proto_item_set_hidden(ptr noundef %70)
  %71 = load i32, ptr %15, align 4
  %72 = add i32 %71, 2
  store i32 %72, ptr %15, align 4
  %73 = load ptr, ptr %7, align 8
  %74 = load i32, ptr @hf_cql_string_result_rows_column_name, align 4
  %75 = load ptr, ptr %9, align 8
  %76 = load i32, ptr %15, align 4
  %77 = load i32, ptr %14, align 4
  %78 = call ptr @proto_tree_add_item(ptr noundef %73, i32 noundef %74, ptr noundef %75, i32 noundef %76, i32 noundef %77, i32 noundef 2)
  store ptr %78, ptr %16, align 8
  %79 = load ptr, ptr %16, align 8
  call void @proto_item_set_hidden(ptr noundef %79)
  %80 = load i32, ptr %14, align 4
  %81 = load i32, ptr %15, align 4
  %82 = add i32 %81, %80
  store i32 %82, ptr %15, align 4
  %83 = load ptr, ptr %7, align 8
  %84 = load ptr, ptr %8, align 8
  %85 = load ptr, ptr %9, align 8
  %86 = load i32, ptr %11, align 4
  %87 = call i32 @parse_value(ptr noundef %83, ptr noundef %84, ptr noundef %85, ptr noundef %15, i32 noundef %86)
  store i32 %87, ptr %11, align 4
  br label %88

88:                                               ; preds = %64
  %89 = load i32, ptr %17, align 4
  %90 = add i32 %89, 1
  store i32 %90, ptr %17, align 4
  br label %19, !llvm.loop !22

91:                                               ; preds = %19
  %92 = load i32, ptr %11, align 4
  call void @llvm.lifetime.end.p0(i64 4, ptr %17) #8
  call void @llvm.lifetime.end.p0(i64 8, ptr %16) #8
  call void @llvm.lifetime.end.p0(i64 4, ptr %15) #8
  call void @llvm.lifetime.end.p0(i64 4, ptr %14) #8
  call void @llvm.lifetime.end.p0(i64 4, ptr %13) #8
  ret i32 %92
}