; Function Attrs: null_pointer_is_valid sspstrong uwtable
define internal fastcc i32 @parse_row(ptr noundef %0, ptr noundef %1, ptr noundef %2, i32 noundef range(i32 1, 0) %3, i32 noundef %4, i32 noundef %5) unnamed_addr #0 {
  %7 = alloca i32, align 4
  %8 = alloca i32, align 4
  call void @llvm.lifetime.start.p0(i64 4, ptr nonnull %7) #8
  call void @llvm.lifetime.start.p0(i64 4, ptr nonnull %8) #8
  store i32 %3, ptr %8, align 4
  %9 = icmp sgt i32 %5, 0
  br i1 %9, label %.lr.ph, label %._crit_edge

.lr.ph:                                           ; preds = %6, %proto_item_set_hidden.exit42
  %.044 = phi i32 [ %84, %proto_item_set_hidden.exit42 ], [ 0, %6 ]
  %.02743 = phi i32 [ %83, %proto_item_set_hidden.exit42 ], [ %4, %6 ]
  %10 = load i32, ptr @hf_cql_string_length, align 4
  %11 = load i32, ptr %8, align 4
  %12 = call ptr @proto_tree_add_item_ret_uint(ptr noundef %0, i32 noundef %10, ptr noundef %2, i32 noundef %11, i32 noundef 2, i32 noundef 0, ptr noundef nonnull %7)
  %.not.i = icmp eq ptr %12, null
  br i1 %.not.i, label %proto_item_set_hidden.exit, label %13

13:                                               ; preds = %.lr.ph
  %14 = getelementptr inbounds nuw i8, ptr %12, i64 40
  %15 = load ptr, ptr %14, align 8
  %.not5.i = icmp eq ptr %15, null
  br i1 %.not5.i, label %proto_item_set_hidden.exit, label %16

16:                                               ; preds = %13
  %17 = getelementptr inbounds nuw i8, ptr %15, i64 28
  %18 = load i32, ptr %17, align 4
  %19 = or i32 %18, 1
  store i32 %19, ptr %17, align 4
  br label %proto_item_set_hidden.exit

proto_item_set_hidden.exit:                       ; preds = %.lr.ph, %13, %16
  %20 = load i32, ptr %8, align 4
  %21 = add i32 %20, 2
  store i32 %21, ptr %8, align 4
  %22 = load i32, ptr @hf_cql_string_result_rows_keyspace_name, align 4
  %23 = load i32, ptr %7, align 4
  %24 = call ptr @proto_tree_add_item(ptr noundef %0, i32 noundef %22, ptr noundef %2, i32 noundef %21, i32 noundef %23, i32 noundef 2)
  %.not.i28 = icmp eq ptr %24, null
  br i1 %.not.i28, label %proto_item_set_hidden.exit30, label %25

25:                                               ; preds = %proto_item_set_hidden.exit
  %26 = getelementptr inbounds nuw i8, ptr %24, i64 40
  %27 = load ptr, ptr %26, align 8
  %.not5.i29 = icmp eq ptr %27, null
  br i1 %.not5.i29, label %proto_item_set_hidden.exit30, label %28

28:                                               ; preds = %25
  %29 = getelementptr inbounds nuw i8, ptr %27, i64 28
  %30 = load i32, ptr %29, align 4
  %31 = or i32 %30, 1
  store i32 %31, ptr %29, align 4
  br label %proto_item_set_hidden.exit30

proto_item_set_hidden.exit30:                     ; preds = %proto_item_set_hidden.exit, %25, %28
  %32 = load i32, ptr %7, align 4
  %33 = load i32, ptr %8, align 4
  %34 = add i32 %33, %32
  store i32 %34, ptr %8, align 4
  %35 = load i32, ptr @hf_cql_string_length, align 4
  %36 = call ptr @proto_tree_add_item_ret_uint(ptr noundef %0, i32 noundef %35, ptr noundef %2, i32 noundef %34, i32 noundef 2, i32 noundef 0, ptr noundef nonnull %7)
  %.not.i31 = icmp eq ptr %36, null
  br i1 %.not.i31, label %proto_item_set_hidden.exit33, label %37

37:                                               ; preds = %proto_item_set_hidden.exit30
  %38 = getelementptr inbounds nuw i8, ptr %36, i64 40
  %39 = load ptr, ptr %38, align 8
  %.not5.i32 = icmp eq ptr %39, null
  br i1 %.not5.i32, label %proto_item_set_hidden.exit33, label %40

40:                                               ; preds = %37
  %41 = getelementptr inbounds nuw i8, ptr %39, i64 28
  %42 = load i32, ptr %41, align 4
  %43 = or i32 %42, 1
  store i32 %43, ptr %41, align 4
  br label %proto_item_set_hidden.exit33

proto_item_set_hidden.exit33:                     ; preds = %proto_item_set_hidden.exit30, %37, %40
  %44 = load i32, ptr %8, align 4
  %45 = add i32 %44, 2
  store i32 %45, ptr %8, align 4
  %46 = load i32, ptr @hf_cql_string_result_rows_table_name, align 4
  %47 = load i32, ptr %7, align 4
  %48 = call ptr @proto_tree_add_item(ptr noundef %0, i32 noundef %46, ptr noundef %2, i32 noundef %45, i32 noundef %47, i32 noundef 2)
  %.not.i34 = icmp eq ptr %48, null
  br i1 %.not.i34, label %proto_item_set_hidden.exit36, label %49

49:                                               ; preds = %proto_item_set_hidden.exit33
  %50 = getelementptr inbounds nuw i8, ptr %48, i64 40
  %51 = load ptr, ptr %50, align 8
  %.not5.i35 = icmp eq ptr %51, null
  br i1 %.not5.i35, label %proto_item_set_hidden.exit36, label %52

52:                                               ; preds = %49
  %53 = getelementptr inbounds nuw i8, ptr %51, i64 28
  %54 = load i32, ptr %53, align 4
  %55 = or i32 %54, 1
  store i32 %55, ptr %53, align 4
  br label %proto_item_set_hidden.exit36

proto_item_set_hidden.exit36:                     ; preds = %proto_item_set_hidden.exit33, %49, %52
  %56 = load i32, ptr %7, align 4
  %57 = load i32, ptr %8, align 4
  %58 = add i32 %57, %56
  store i32 %58, ptr %8, align 4
  %59 = load i32, ptr @hf_cql_string_length, align 4
  %60 = call ptr @proto_tree_add_item_ret_uint(ptr noundef %0, i32 noundef %59, ptr noundef %2, i32 noundef %58, i32 noundef 2, i32 noundef 0, ptr noundef nonnull %7)
  %.not.i37 = icmp eq ptr %60, null
  br i1 %.not.i37, label %proto_item_set_hidden.exit39, label %61

61:                                               ; preds = %proto_item_set_hidden.exit36
  %62 = getelementptr inbounds nuw i8, ptr %60, i64 40
  %63 = load ptr, ptr %62, align 8
  %.not5.i38 = icmp eq ptr %63, null
  br i1 %.not5.i38, label %proto_item_set_hidden.exit39, label %64

64:                                               ; preds = %61
  %65 = getelementptr inbounds nuw i8, ptr %63, i64 28
  %66 = load i32, ptr %65, align 4
  %67 = or i32 %66, 1
  store i32 %67, ptr %65, align 4
  br label %proto_item_set_hidden.exit39

proto_item_set_hidden.exit39:                     ; preds = %proto_item_set_hidden.exit36, %61, %64
  %68 = load i32, ptr %8, align 4
  %69 = add i32 %68, 2
  store i32 %69, ptr %8, align 4
  %70 = load i32, ptr @hf_cql_string_result_rows_column_name, align 4
  %71 = load i32, ptr %7, align 4
  %72 = call ptr @proto_tree_add_item(ptr noundef %0, i32 noundef %70, ptr noundef %2, i32 noundef %69, i32 noundef %71, i32 noundef 2)
  %.not.i40 = icmp eq ptr %72, null
  br i1 %.not.i40, label %proto_item_set_hidden.exit42, label %73

73:                                               ; preds = %proto_item_set_hidden.exit39
  %74 = getelementptr inbounds nuw i8, ptr %72, i64 40
  %75 = load ptr, ptr %74, align 8
  %.not5.i41 = icmp eq ptr %75, null
  br i1 %.not5.i41, label %proto_item_set_hidden.exit42, label %76

76:                                               ; preds = %73
  %77 = getelementptr inbounds nuw i8, ptr %75, i64 28
  %78 = load i32, ptr %77, align 4
  %79 = or i32 %78, 1
  store i32 %79, ptr %77, align 4
  br label %proto_item_set_hidden.exit42

proto_item_set_hidden.exit42:                     ; preds = %proto_item_set_hidden.exit39, %73, %76
  %80 = load i32, ptr %7, align 4
  %81 = load i32, ptr %8, align 4
  %82 = add i32 %81, %80
  store i32 %82, ptr %8, align 4
  %83 = call fastcc i32 @parse_value(ptr noundef %0, ptr noundef %1, ptr noundef %2, ptr noundef nonnull %8, i32 noundef %.02743)
  %84 = add nuw nsw i32 %.044, 1
  %exitcond.not = icmp eq i32 %84, %5
  br i1 %exitcond.not, label %._crit_edge, label %.lr.ph, !llvm.loop !20

._crit_edge:                                      ; preds = %proto_item_set_hidden.exit42, %6
  %.027.lcssa = phi i32 [ %4, %6 ], [ %83, %proto_item_set_hidden.exit42 ]
  call void @llvm.lifetime.end.p0(i64 4, ptr nonnull %8) #8
  call void @llvm.lifetime.end.p0(i64 4, ptr nonnull %7) #8
  ret i32 %.027.lcssa
}